; Function Attrs: mustprogress nounwind uwtable
define hidden void @_ZN6google8protobuf8compiler6csharp16MessageGeneratorD0Ev(ptr noundef nonnull align 8 dereferenceable(57) %this) unnamed_addr #5 align 2 personality ptr @__gxx_personality_v0 {
entry:
  store ptr getelementptr inbounds ({ [4 x ptr] }, ptr @_ZTVN6google8protobuf8compiler6csharp16MessageGeneratorE, i64 0, i32 0, i64 2), ptr %this, align 8
  %fields_by_number_.i = getelementptr inbounds i8, ptr %this, i64 24
  %0 = load ptr, ptr %fields_by_number_.i, align 8
  %tobool.not.i.i.i.i = icmp eq ptr %0, null
  br i1 %tobool.not.i.i.i.i, label %_ZN6google8protobuf8compiler6csharp16MessageGeneratorD2Ev.exit, label %if.then.i.i.i.i

if.then.i.i.i.i:                                  ; preds = %entry
  tail call void @_ZdlPv(ptr noundef nonnull %0) #25
  br label %_ZN6google8protobuf8compiler6csharp16MessageGeneratorD2Ev.exit

_ZN6google8protobuf8compiler6csharp16MessageGeneratorD2Ev.exit: ; preds = %entry, %if.then.i.i.i.i
  tail call void @_ZN6google8protobuf8compiler6csharp19SourceGeneratorBaseD2Ev(ptr noundef nonnull align 8 dereferenceable(16) %this) #26
  tail call void @_ZdlPv(ptr noundef nonnull %this) #25
  ret void
}